; Function Attrs: mustprogress uwtable
define void @_ZN9grpc_core19LoadBalancingPolicyC2ENS0_4ArgsEl(ptr noundef nonnull align 8 dereferenceable(56) %this, ptr noundef %args, i64 noundef %initial_refcount) unnamed_addr #3 align 2 personality ptr @__gxx_personality_v0 {
entry:
  %refs_.i = getelementptr inbounds i8, ptr %this, i64 8
  store i64 %initial_refcount, ptr %refs_.i, align 8
  store ptr getelementptr inbounds ({ [10 x ptr] }, ptr @_ZTVN9grpc_core19LoadBalancingPolicyE, i64 0, i32 0, i64 2), ptr %this, align 8
  %work_serializer_ = getelementptr inbounds i8, ptr %this, i64 16
  %0 = load ptr, ptr %args, align 8
  store ptr %0, ptr %work_serializer_, align 8
  %_M_refcount.i.i = getelementptr inbounds i8, ptr %this, i64 24
  store ptr null, ptr %_M_refcount.i.i, align 8
  %_M_refcount4.i.i = getelementptr inbounds i8, ptr %args, i64 8
  %1 = load ptr, ptr %_M_refcount4.i.i, align 8
  store ptr null, ptr %_M_refcount4.i.i, align 8
  store ptr %1, ptr %_M_refcount.i.i, align 8
  store ptr null, ptr %args, align 8
  %call = invoke noundef ptr @_Z23grpc_pollset_set_createv()
          to label %invoke.cont unwind label %lpad

invoke.cont:                                      ; preds = %entry
  %interested_parties_ = getelementptr inbounds i8, ptr %this, i64 32
  store ptr %call, ptr %interested_parties_, align 8
  %channel_control_helper_ = getelementptr inbounds i8, ptr %this, i64 40
  %channel_control_helper = getelementptr inbounds i8, ptr %args, i64 16
  %2 = load i64, ptr %channel_control_helper, align 8
  store i64 %2, ptr %channel_control_helper_, align 8
  store ptr null, ptr %channel_control_helper, align 8
  %channel_args_ = getelementptr inbounds i8, ptr %this, i64 48
  %args2 = getelementptr inbounds i8, ptr %args, i64 24
  tail call void @_ZN9grpc_core11ChannelArgsC1EOS0_(ptr noundef nonnull align 8 dereferenceable(8) %channel_args_, ptr noundef nonnull align 8 dereferenceable(8) %args2) #14
  ret void

lpad:                                             ; preds = %entry
  %3 = landingpad { ptr, i32 }
          cleanup
  tail call void @_ZNSt10shared_ptrIN9grpc_core14WorkSerializerEED2Ev(ptr noundef nonnull align 8 dereferenceable(16) %work_serializer_) #14
  resume { ptr, i32 } %3
}